; ModuleID = 'source-C-CXX/18/3012.cpp'
source_filename = "source-C-CXX/18/3012.cpp"
target datalayout = "e-m:e-p270:32:32-p271:32:32-p272:64:64-i64:64-f80:128-n8:16:32:64-S128"
target triple = "x86_64-pc-linux-gnu"

%"class.std::ios_base::Init" = type { i8 }
%"class.std::basic_istream" = type { i32 (...)**, i64, %"class.std::basic_ios" }
%"class.std::basic_ios" = type { %"class.std::ios_base", %"class.std::basic_ostream"*, i8, i8, %"class.std::basic_streambuf"*, %"class.std::ctype"*, %"class.std::num_put"*, %"class.std::num_get"* }
%"class.std::ios_base" = type { i32 (...)**, i64, i64, i32, i32, i32, %"struct.std::ios_base::_Callback_list"*, %"struct.std::ios_base::_Words", [8 x %"struct.std::ios_base::_Words"], i32, %"struct.std::ios_base::_Words"*, %"class.std::locale" }
%"struct.std::ios_base::_Callback_list" = type { %"struct.std::ios_base::_Callback_list"*, void (i32, %"class.std::ios_base"*, i32)*, i32, i32 }
%"struct.std::ios_base::_Words" = type { i8*, i64 }
%"class.std::locale" = type { %"class.std::locale::_Impl"* }
%"class.std::locale::_Impl" = type { i32, %"class.std::locale::facet"**, i64, %"class.std::locale::facet"**, i8** }
%"class.std::locale::facet" = type <{ i32 (...)**, i32, [4 x i8] }>
%"class.std::basic_ostream" = type { i32 (...)**, %"class.std::basic_ios" }
%"class.std::basic_streambuf" = type { i32 (...)**, i8*, i8*, i8*, i8*, i8*, i8*, %"class.std::locale" }
%"class.std::ctype" = type <{ %"class.std::locale::facet.base", [4 x i8], %struct.__locale_struct*, i8, [7 x i8], i32*, i32*, i16*, i8, [256 x i8], [256 x i8], i8, [6 x i8] }>
%"class.std::locale::facet.base" = type <{ i32 (...)**, i32 }>
%struct.__locale_struct = type { [13 x %struct.__locale_data*], i16*, i32*, i32*, [13 x i8*] }
%struct.__locale_data = type opaque
%"class.std::num_put" = type { %"class.std::locale::facet.base", [4 x i8] }
%"class.std::num_get" = type { %"class.std::locale::facet.base", [4 x i8] }

@_ZStL8__ioinit = internal global %"class.std::ios_base::Init" zeroinitializer, align 1
@__dso_handle = external hidden global i8
@_ZSt3cin = external global %"class.std::basic_istream", align 8
@_ZSt4cout = external global %"class.std::basic_ostream", align 8
@.str = private unnamed_addr constant [2 x i8] c" \00", align 1
@llvm.global_ctors = appending global [1 x { i32, void ()*, i8* }] [{ i32, void ()*, i8* } { i32 65535, void ()* @_GLOBAL__sub_I_3012.cpp, i8* null }]

declare void @_ZNSt8ios_base4InitC1Ev(%"class.std::ios_base::Init"* nonnull align 1 dereferenceable(1)) unnamed_addr #0

; Function Attrs: nounwind
declare void @_ZNSt8ios_base4InitD1Ev(%"class.std::ios_base::Init"* nonnull align 1 dereferenceable(1)) unnamed_addr #1

; Function Attrs: nofree nounwind
declare i32 @__cxa_atexit(void (i8*)*, i8*, i8*) local_unnamed_addr #2

; Function Attrs: mustprogress norecurse sspstrong uwtable
define dso_local i32 @main() local_unnamed_addr #3 {
  %1 = alloca [100 x [100 x i8]], align 16
  %2 = alloca [100 x i8], align 16
  %3 = alloca [100 x i8], align 16
  %4 = getelementptr inbounds [100 x [100 x i8]], [100 x [100 x i8]]* %1, i64 0, i64 0, i64 0
  call void @llvm.lifetime.start.p0i8(i64 10000, i8* nonnull %4) #9
  call void @llvm.memset.p0i8.i64(i8* noundef nonnull align 16 dereferenceable(10000) %4, i8 0, i64 10000, i1 false)
  br label %5

5:                                                ; preds = %5, %0
  %6 = phi i64 [ %8, %5 ], [ 0, %0 ]
  %7 = getelementptr inbounds [100 x [100 x i8]], [100 x [100 x i8]]* %1, i64 0, i64 %6, i64 0
  call void @_ZSt17__istream_extractRSiPcl(%"class.std::basic_istream"* nonnull align 8 dereferenceable(16) @_ZSt3cin, i8* nonnull %7, i64 9223372036854775807)
  %8 = add nuw i64 %6, 1
  %9 = call i32 @_ZNSi3getEv(%"class.std::basic_istream"* nonnull align 8 dereferenceable(16) @_ZSt3cin)
  %10 = icmp eq i32 %9, 10
  br i1 %10, label %11, label %5, !llvm.loop !5

11:                                               ; preds = %5
  %12 = trunc i64 %6 to i32
  %13 = getelementptr inbounds [100 x i8], [100 x i8]* %2, i64 0, i64 0
  call void @llvm.lifetime.start.p0i8(i64 100, i8* nonnull %13) #9
  call void @llvm.memset.p0i8.i64(i8* noundef nonnull align 16 dereferenceable(100) %13, i8 0, i64 100, i1 false)
  %14 = getelementptr inbounds [100 x i8], [100 x i8]* %3, i64 0, i64 0
  call void @llvm.lifetime.start.p0i8(i64 100, i8* nonnull %14) #9
  call void @llvm.memset.p0i8.i64(i8* noundef nonnull align 16 dereferenceable(100) %14, i8 0, i64 100, i1 false)
  call void @_ZSt17__istream_extractRSiPcl(%"class.std::basic_istream"* nonnull align 8 dereferenceable(16) @_ZSt3cin, i8* nonnull %13, i64 100)
  call void @_ZSt17__istream_extractRSiPcl(%"class.std::basic_istream"* nonnull align 8 dereferenceable(16) @_ZSt3cin, i8* nonnull %14, i64 100)
  %15 = add i64 %6, 1
  %16 = and i64 %15, 4294967295
  %17 = getelementptr inbounds [100 x i8], [100 x i8]* %2, i64 0, i64 0
  %18 = load i8, i8* %17, align 16, !tbaa !7
  br label %19

19:                                               ; preds = %11, %39
  %20 = phi i64 [ 0, %11 ], [ %40, %39 ]
  %21 = getelementptr inbounds [100 x [100 x i8]], [100 x [100 x i8]]* %1, i64 0, i64 %20, i64 0
  %22 = getelementptr inbounds [100 x [100 x i8]], [100 x [100 x i8]]* %1, i64 0, i64 %20, i64 0
  %23 = load i8, i8* %22, align 4, !tbaa !7
  %24 = icmp eq i8 %23, %18
  br i1 %24, label %29, label %39

25:                                               ; preds = %39
  %26 = icmp eq i32 %12, 0
  br i1 %26, label %42, label %27

27:                                               ; preds = %25
  %28 = and i64 %6, 4294967295
  br label %45

29:                                               ; preds = %19, %70
  %30 = phi i64 [ %69, %70 ], [ 0, %19 ]
  %31 = or i64 %30, 1
  %32 = getelementptr inbounds [100 x [100 x i8]], [100 x [100 x i8]]* %1, i64 0, i64 %20, i64 %31
  %33 = load i8, i8* %32, align 1, !tbaa !7
  %34 = getelementptr inbounds [100 x i8], [100 x i8]* %2, i64 0, i64 %31
  %35 = load i8, i8* %34, align 1, !tbaa !7
  %36 = icmp eq i8 %33, %35
  br i1 %36, label %53, label %39

37:                                               ; preds = %67
  %38 = call i8* @strcpy(i8* noundef nonnull %21, i8* noundef nonnull %14) #9
  br label %39

39:                                               ; preds = %29, %53, %60, %70, %19, %37
  %40 = add nuw nsw i64 %20, 1
  %41 = icmp eq i64 %40, %16
  br i1 %41, label %25, label %19, !llvm.loop !10

42:                                               ; preds = %45, %25
  %43 = call i64 @strlen(i8* noundef nonnull dereferenceable(1) %7) #9
  %44 = call nonnull align 8 dereferenceable(8) %"class.std::basic_ostream"* @_ZSt16__ostream_insertIcSt11char_traitsIcEERSt13basic_ostreamIT_T0_ES6_PKS3_l(%"class.std::basic_ostream"* nonnull align 8 dereferenceable(8) @_ZSt4cout, i8* nonnull %7, i64 %43)
  call void @llvm.lifetime.end.p0i8(i64 100, i8* nonnull %14) #9
  call void @llvm.lifetime.end.p0i8(i64 100, i8* nonnull %13) #9
  call void @llvm.lifetime.end.p0i8(i64 10000, i8* nonnull %4) #9
  ret i32 0

45:                                               ; preds = %27, %45
  %46 = phi i64 [ 0, %27 ], [ %51, %45 ]
  %47 = getelementptr inbounds [100 x [100 x i8]], [100 x [100 x i8]]* %1, i64 0, i64 %46, i64 0
  %48 = call i64 @strlen(i8* noundef nonnull dereferenceable(1) %47) #9
  %49 = call nonnull align 8 dereferenceable(8) %"class.std::basic_ostream"* @_ZSt16__ostream_insertIcSt11char_traitsIcEERSt13basic_ostreamIT_T0_ES6_PKS3_l(%"class.std::basic_ostream"* nonnull align 8 dereferenceable(8) @_ZSt4cout, i8* nonnull %47, i64 %48)
  %50 = call nonnull align 8 dereferenceable(8) %"class.std::basic_ostream"* @_ZSt16__ostream_insertIcSt11char_traitsIcEERSt13basic_ostreamIT_T0_ES6_PKS3_l(%"class.std::basic_ostream"* nonnull align 8 dereferenceable(8) @_ZSt4cout, i8* nonnull getelementptr inbounds ([2 x i8], [2 x i8]* @.str, i64 0, i64 0), i64 1)
  %51 = add nuw nsw i64 %46, 1
  %52 = icmp eq i64 %51, %28
  br i1 %52, label %42, label %45, !llvm.loop !11

53:                                               ; preds = %29
  %54 = or i64 %30, 2
  %55 = getelementptr inbounds [100 x [100 x i8]], [100 x [100 x i8]]* %1, i64 0, i64 %20, i64 %54
  %56 = load i8, i8* %55, align 2, !tbaa !7
  %57 = getelementptr inbounds [100 x i8], [100 x i8]* %2, i64 0, i64 %54
  %58 = load i8, i8* %57, align 2, !tbaa !7
  %59 = icmp eq i8 %56, %58
  br i1 %59, label %60, label %39

60:                                               ; preds = %53
  %61 = or i64 %30, 3
  %62 = getelementptr inbounds [100 x [100 x i8]], [100 x [100 x i8]]* %1, i64 0, i64 %20, i64 %61
  %63 = load i8, i8* %62, align 1, !tbaa !7
  %64 = getelementptr inbounds [100 x i8], [100 x i8]* %2, i64 0, i64 %61
  %65 = load i8, i8* %64, align 1, !tbaa !7
  %66 = icmp eq i8 %63, %65
  br i1 %66, label %67, label %39

67:                                               ; preds = %60
  %68 = icmp eq i64 %61, 99
  %69 = add nuw nsw i64 %30, 4
  br i1 %68, label %37, label %70

70:                                               ; preds = %67
  %71 = getelementptr inbounds [100 x [100 x i8]], [100 x [100 x i8]]* %1, i64 0, i64 %20, i64 %69
  %72 = load i8, i8* %71, align 4, !tbaa !7
  %73 = getelementptr inbounds [100 x i8], [100 x i8]* %2, i64 0, i64 %69
  %74 = load i8, i8* %73, align 4, !tbaa !7
  %75 = icmp eq i8 %72, %74
  br i1 %75, label %29, label %39
}

; Function Attrs: argmemonly mustprogress nofree nosync nounwind willreturn
declare void @llvm.lifetime.start.p0i8(i64 immarg, i8* nocapture) #4

; Function Attrs: argmemonly mustprogress nofree nounwind willreturn writeonly
declare void @llvm.memset.p0i8.i64(i8* nocapture writeonly, i8, i64, i1 immarg) #5

declare i32 @_ZNSi3getEv(%"class.std::basic_istream"* nonnull align 8 dereferenceable(16)) local_unnamed_addr #0

; Function Attrs: argmemonly mustprogress nofree nounwind willreturn
declare i8* @strcpy(i8* noalias returned writeonly, i8* noalias nocapture readonly) local_unnamed_addr #6

; Function Attrs: argmemonly mustprogress nofree nosync nounwind willreturn
declare void @llvm.lifetime.end.p0i8(i64 immarg, i8* nocapture) #4

declare void @_ZSt17__istream_extractRSiPcl(%"class.std::basic_istream"* nonnull align 8 dereferenceable(16), i8*, i64) local_unnamed_addr #0

declare nonnull align 8 dereferenceable(8) %"class.std::basic_ostream"* @_ZSt16__ostream_insertIcSt11char_traitsIcEERSt13basic_ostreamIT_T0_ES6_PKS3_l(%"class.std::basic_ostream"* nonnull align 8 dereferenceable(8), i8*, i64) local_unnamed_addr #0

; Function Attrs: argmemonly mustprogress nofree nounwind readonly willreturn
declare i64 @strlen(i8* nocapture) local_unnamed_addr #7

; Function Attrs: sspstrong uwtable
define internal void @_GLOBAL__sub_I_3012.cpp() #8 section ".text.startup" {
  tail call void @_ZNSt8ios_base4InitC1Ev(%"class.std::ios_base::Init"* nonnull align 1 dereferenceable(1) @_ZStL8__ioinit)
  %1 = tail call i32 @__cxa_atexit(void (i8*)* bitcast (void (%"class.std::ios_base::Init"*)* @_ZNSt8ios_base4InitD1Ev to void (i8*)*), i8* getelementptr inbounds (%"class.std::ios_base::Init", %"class.std::ios_base::Init"* @_ZStL8__ioinit, i64 0, i32 0), i8* nonnull @__dso_handle) #9
  ret void
}


!llvm.module.flags = !{!0, !1, !2, !3}
!llvm.ident = !{!4}

!0 = !{i32 1, !"wchar_size", i32 4}
!1 = !{i32 7, !"PIC Level", i32 2}
!2 = !{i32 7, !"PIE Level", i32 2}
!3 = !{i32 7, !"uwtable", i32 1}
!4 = !{!"clang version 13.0.0"}
!5 = distinct !{!5, !6}
!6 = !{!"llvm.loop.mustprogress"}
!7 = !{!8, !8, i64 0}
!8 = !{!"omnipotent char", !9, i64 0}
!9 = !{!"Simple C++ TBAA"}
!10 = distinct !{!10, !6}
!11 = distinct !{!11, !6}
